; Function Attrs: mustprogress nofree norecurse nosync nounwind willreturn memory(read, inaccessiblemem: none) uwtable
define zeroext range(i8 0, 2) i8 @l_Lean_Elab_Term_MatchExpr_shouldSaveActual___lambda__1(ptr noundef readonly captures(none) %0) local_unnamed_addr #3 {
  %2 = getelementptr inbounds nuw i8, ptr %0, i64 24
  %3 = load ptr, ptr %2, align 8, !tbaa !4
  %4 = ptrtoint ptr %3 to i64
  %5 = and i64 %4, 1
  %.not.i = icmp eq i64 %5, 0
  br i1 %.not.i, label %9, label %6

6:                                                ; preds = %1
  %7 = lshr i64 %4, 1
  %8 = trunc i64 %7 to i32
  br label %lean_obj_tag.exit

9:                                                ; preds = %1
  %10 = getelementptr i8, ptr %3, i64 4
  %.val.i = load i32, ptr %10, align 4
  %11 = lshr i32 %.val.i, 24
  br label %lean_obj_tag.exit

lean_obj_tag.exit:                                ; preds = %6, %9
  %.0.i = phi i32 [ %8, %6 ], [ %11, %9 ]
  %12 = icmp eq i32 %.0.i, 0
  br i1 %12, label %25, label %13

13:                                               ; preds = %lean_obj_tag.exit
  %14 = getelementptr inbounds nuw i8, ptr %3, i64 8
  %15 = load ptr, ptr %14, align 8, !tbaa !4
  %16 = ptrtoint ptr %15 to i64
  %17 = and i64 %16, 1
  %.not.i7 = icmp eq i64 %17, 0
  br i1 %.not.i7, label %21, label %18

18:                                               ; preds = %13
  %19 = lshr i64 %16, 1
  %20 = trunc i64 %19 to i32
  br label %lean_obj_tag.exit10

21:                                               ; preds = %13
  %22 = getelementptr i8, ptr %15, i64 4
  %.val.i9 = load i32, ptr %22, align 4
  %23 = lshr i32 %.val.i9, 24
  br label %lean_obj_tag.exit10

lean_obj_tag.exit10:                              ; preds = %18, %21
  %.0.i8 = phi i32 [ %20, %18 ], [ %23, %21 ]
  %24 = icmp ne i32 %.0.i8, 0
  %. = zext i1 %24 to i8
  br label %25

25:                                               ; preds = %lean_obj_tag.exit, %lean_obj_tag.exit10
  %.0 = phi i8 [ %., %lean_obj_tag.exit10 ], [ 0, %lean_obj_tag.exit ]
  ret i8 %.0
}